(dp0
S'bob'
p1
(dp2
S'pay'
p3
I30000
sS'job'
p4
S'dev'
p5
sS'age'
p6
I42
sS'name'
p7
g1
ssS'sue'
p8
(dp9
g3
I40000
sg4
S'soft'
p10
sg6
I21
sg7
g8
ssS'tom'
p11
(dp12
g3
I200000
sg6
I35
sg7
g11
sg11
S'archit'
p13
ss.